target datalayout = "e-m:e-p270:32:32-p271:32:32-p272:64:64-i64:64-i128:128-f80:128-n8:16:32:64-S128"
target triple = "x86_64-unknown-linux-gnu"

%struct.ecc_point = type { [1 x %struct.sp_int], [1 x %struct.sp_int], [1 x %struct.sp_int] }
%struct.sp_int = type { i32, i32, [129 x i64] }

; Function Attrs: nounwind uwtable
define internal i32 @_ecc_is_point(ptr noundef %ecp, ptr noundef %a, ptr noundef %b, ptr noundef %prime) #0 {
entry:
  %retval = alloca i32, align 4
  %ecp.addr = alloca ptr, align 8
  %a.addr = alloca ptr, align 8
  %b.addr = alloca ptr, align 8
  %prime.addr = alloca ptr, align 8
  %err = alloca i32, align 4
  %t1 = alloca [1 x %struct.sp_int], align 16
  %t2 = alloca [1 x %struct.sp_int], align 16
  store ptr %ecp, ptr %ecp.addr, align 8
  store ptr %a, ptr %a.addr, align 8
  store ptr %b, ptr %b.addr, align 8
  store ptr %prime, ptr %prime.addr, align 8
  %arraydecay = getelementptr inbounds [1 x %struct.sp_int], ptr %t1, i64 0, i64 0
  %arraydecay1 = getelementptr inbounds [1 x %struct.sp_int], ptr %t2, i64 0, i64 0
  %call = call i32 @sp_init_multi(ptr noundef %arraydecay, ptr noundef %arraydecay1, ptr noundef null, ptr noundef null, ptr noundef null, ptr noundef null)
  store i32 %call, ptr %err, align 4
  %cmp = icmp ne i32 %call, 0
  br i1 %cmp, label %if.then, label %if.end

if.then:                                          ; preds = %entry
  %0 = load i32, ptr %err, align 4
  store i32 %0, ptr %retval, align 4
  br label %return

if.end:                                           ; preds = %entry
  br label %do.body

do.body:                                          ; preds = %if.end
  br label %do.end

do.end:                                           ; preds = %do.body
  %1 = load i32, ptr %err, align 4
  %cmp2 = icmp eq i32 %1, 0
  br i1 %cmp2, label %if.then3, label %if.end7

if.then3:                                         ; preds = %do.end
  %2 = load ptr, ptr %ecp.addr, align 8
  %y = getelementptr inbounds %struct.ecc_point, ptr %2, i32 0, i32 1
  %arraydecay4 = getelementptr inbounds [1 x %struct.sp_int], ptr %y, i64 0, i64 0
  %arraydecay5 = getelementptr inbounds [1 x %struct.sp_int], ptr %t1, i64 0, i64 0
  %call6 = call i32 @sp_sqr(ptr noundef %arraydecay4, ptr noundef %arraydecay5)
  store i32 %call6, ptr %err, align 4
  br label %if.end7

if.end7:                                          ; preds = %if.then3, %do.end
  %3 = load i32, ptr %err, align 4
  %cmp8 = icmp eq i32 %3, 0
  br i1 %cmp8, label %if.then9, label %if.end13

if.then9:                                         ; preds = %if.end7
  %4 = load ptr, ptr %ecp.addr, align 8
  %x = getelementptr inbounds %struct.ecc_point, ptr %4, i32 0, i32 0
  %arraydecay10 = getelementptr inbounds [1 x %struct.sp_int], ptr %x, i64 0, i64 0
  %arraydecay11 = getelementptr inbounds [1 x %struct.sp_int], ptr %t2, i64 0, i64 0
  %call12 = call i32 @sp_sqr(ptr noundef %arraydecay10, ptr noundef %arraydecay11)
  store i32 %call12, ptr %err, align 4
  br label %if.end13

if.end13:                                         ; preds = %if.then9, %if.end7
  %5 = load i32, ptr %err, align 4
  %cmp14 = icmp eq i32 %5, 0
  br i1 %cmp14, label %if.then15, label %if.end19

if.then15:                                        ; preds = %if.end13
  %arraydecay16 = getelementptr inbounds [1 x %struct.sp_int], ptr %t2, i64 0, i64 0
  %6 = load ptr, ptr %prime.addr, align 8
  %arraydecay17 = getelementptr inbounds [1 x %struct.sp_int], ptr %t2, i64 0, i64 0
  %call18 = call i32 @sp_mod(ptr noundef %arraydecay16, ptr noundef %6, ptr noundef %arraydecay17)
  store i32 %call18, ptr %err, align 4
  br label %if.end19

if.end19:                                         ; preds = %if.then15, %if.end13
  %7 = load i32, ptr %err, align 4
  %cmp20 = icmp eq i32 %7, 0
  br i1 %cmp20, label %if.then21, label %if.end27

if.then21:                                        ; preds = %if.end19
  %8 = load ptr, ptr %ecp.addr, align 8
  %x22 = getelementptr inbounds %struct.ecc_point, ptr %8, i32 0, i32 0
  %arraydecay23 = getelementptr inbounds [1 x %struct.sp_int], ptr %x22, i64 0, i64 0
  %arraydecay24 = getelementptr inbounds [1 x %struct.sp_int], ptr %t2, i64 0, i64 0
  %arraydecay25 = getelementptr inbounds [1 x %struct.sp_int], ptr %t2, i64 0, i64 0
  %call26 = call i32 @sp_mul(ptr noundef %arraydecay23, ptr noundef %arraydecay24, ptr noundef %arraydecay25)
  store i32 %call26, ptr %err, align 4
  br label %if.end27

if.end27:                                         ; preds = %if.then21, %if.end19
  %9 = load i32, ptr %err, align 4
  %cmp28 = icmp eq i32 %9, 0
  br i1 %cmp28, label %if.then29, label %if.end34

if.then29:                                        ; preds = %if.end27
  %arraydecay30 = getelementptr inbounds [1 x %struct.sp_int], ptr %t1, i64 0, i64 0
  %arraydecay31 = getelementptr inbounds [1 x %struct.sp_int], ptr %t2, i64 0, i64 0
  %10 = load ptr, ptr %prime.addr, align 8
  %arraydecay32 = getelementptr inbounds [1 x %struct.sp_int], ptr %t1, i64 0, i64 0
  %call33 = call i32 @sp_submod(ptr noundef %arraydecay30, ptr noundef %arraydecay31, ptr noundef %10, ptr noundef %arraydecay32)
  store i32 %call33, ptr %err, align 4
  br label %if.end34

if.end34:                                         ; preds = %if.then29, %if.end27
  %11 = load i32, ptr %err, align 4
  %cmp35 = icmp eq i32 %11, 0
  br i1 %cmp35, label %if.then36, label %if.end42

if.then36:                                        ; preds = %if.end34
  %arraydecay37 = getelementptr inbounds [1 x %struct.sp_int], ptr %t1, i64 0, i64 0
  %12 = load ptr, ptr %ecp.addr, align 8
  %x38 = getelementptr inbounds %struct.ecc_point, ptr %12, i32 0, i32 0
  %arraydecay39 = getelementptr inbounds [1 x %struct.sp_int], ptr %x38, i64 0, i64 0
  %arraydecay40 = getelementptr inbounds [1 x %struct.sp_int], ptr %t1, i64 0, i64 0
  %call41 = call i32 @sp_add(ptr noundef %arraydecay37, ptr noundef %arraydecay39, ptr noundef %arraydecay40)
  store i32 %call41, ptr %err, align 4
  br label %if.end42

if.end42:                                         ; preds = %if.then36, %if.end34
  %13 = load i32, ptr %err, align 4
  %cmp43 = icmp eq i32 %13, 0
  br i1 %cmp43, label %if.then44, label %if.end50

if.then44:                                        ; preds = %if.end42
  %arraydecay45 = getelementptr inbounds [1 x %struct.sp_int], ptr %t1, i64 0, i64 0
  %14 = load ptr, ptr %ecp.addr, align 8
  %x46 = getelementptr inbounds %struct.ecc_point, ptr %14, i32 0, i32 0
  %arraydecay47 = getelementptr inbounds [1 x %struct.sp_int], ptr %x46, i64 0, i64 0
  %arraydecay48 = getelementptr inbounds [1 x %struct.sp_int], ptr %t1, i64 0, i64 0
  %call49 = call i32 @sp_add(ptr noundef %arraydecay45, ptr noundef %arraydecay47, ptr noundef %arraydecay48)
  store i32 %call49, ptr %err, align 4
  br label %if.end50

if.end50:                                         ; preds = %if.then44, %if.end42
  %15 = load i32, ptr %err, align 4
  %cmp51 = icmp eq i32 %15, 0
  br i1 %cmp51, label %if.then52, label %if.end58

if.then52:                                        ; preds = %if.end50
  %arraydecay53 = getelementptr inbounds [1 x %struct.sp_int], ptr %t1, i64 0, i64 0
  %16 = load ptr, ptr %ecp.addr, align 8
  %x54 = getelementptr inbounds %struct.ecc_point, ptr %16, i32 0, i32 0
  %arraydecay55 = getelementptr inbounds [1 x %struct.sp_int], ptr %x54, i64 0, i64 0
  %arraydecay56 = getelementptr inbounds [1 x %struct.sp_int], ptr %t1, i64 0, i64 0
  %call57 = call i32 @sp_add(ptr noundef %arraydecay53, ptr noundef %arraydecay55, ptr noundef %arraydecay56)
  store i32 %call57, ptr %err, align 4
  br label %if.end58

if.end58:                                         ; preds = %if.then52, %if.end50
  %17 = load i32, ptr %err, align 4
  %cmp59 = icmp eq i32 %17, 0
  br i1 %cmp59, label %if.then60, label %if.end64

if.then60:                                        ; preds = %if.end58
  %arraydecay61 = getelementptr inbounds [1 x %struct.sp_int], ptr %t1, i64 0, i64 0
  %18 = load ptr, ptr %prime.addr, align 8
  %arraydecay62 = getelementptr inbounds [1 x %struct.sp_int], ptr %t1, i64 0, i64 0
  %call63 = call i32 @sp_mod(ptr noundef %arraydecay61, ptr noundef %18, ptr noundef %arraydecay62)
  store i32 %call63, ptr %err, align 4
  br label %if.end64

if.end64:                                         ; preds = %if.then60, %if.end58
  br label %while.cond

while.cond:                                       ; preds = %while.body, %if.end64
  %19 = load i32, ptr %err, align 4
  %cmp65 = icmp eq i32 %19, 0
  br i1 %cmp65, label %land.rhs, label %land.end

land.rhs:                                         ; preds = %while.cond
  br label %land.end

land.end:                                         ; preds = %land.rhs, %while.cond
  %20 = phi i1 [ false, %while.cond ], [ false, %land.rhs ]
  br i1 %20, label %while.body, label %while.end

while.body:                                       ; preds = %land.end
  %arraydecay66 = getelementptr inbounds [1 x %struct.sp_int], ptr %t1, i64 0, i64 0
  %21 = load ptr, ptr %prime.addr, align 8
  %arraydecay67 = getelementptr inbounds [1 x %struct.sp_int], ptr %t1, i64 0, i64 0
  %call68 = call i32 @sp_add(ptr noundef %arraydecay66, ptr noundef %21, ptr noundef %arraydecay67)
  store i32 %call68, ptr %err, align 4
  br label %while.cond, !llvm.loop !27

while.end:                                        ; preds = %land.end
  br label %while.cond69

while.cond69:                                     ; preds = %while.body76, %while.end
  %22 = load i32, ptr %err, align 4
  %cmp70 = icmp eq i32 %22, 0
  br i1 %cmp70, label %land.rhs71, label %land.end75

land.rhs71:                                       ; preds = %while.cond69
  %arraydecay72 = getelementptr inbounds [1 x %struct.sp_int], ptr %t1, i64 0, i64 0
  %23 = load ptr, ptr %prime.addr, align 8
  %call73 = call i32 @sp_cmp(ptr noundef %arraydecay72, ptr noundef %23)
  %cmp74 = icmp ne i32 %call73, -1
  br label %land.end75

land.end75:                                       ; preds = %land.rhs71, %while.cond69
  %24 = phi i1 [ false, %while.cond69 ], [ %cmp74, %land.rhs71 ]
  br i1 %24, label %while.body76, label %while.end80

while.body76:                                     ; preds = %land.end75
  %arraydecay77 = getelementptr inbounds [1 x %struct.sp_int], ptr %t1, i64 0, i64 0
  %25 = load ptr, ptr %prime.addr, align 8
  %arraydecay78 = getelementptr inbounds [1 x %struct.sp_int], ptr %t1, i64 0, i64 0
  %call79 = call i32 @sp_sub(ptr noundef %arraydecay77, ptr noundef %25, ptr noundef %arraydecay78)
  store i32 %call79, ptr %err, align 4
  br label %while.cond69, !llvm.loop !28

while.end80:                                      ; preds = %land.end75
  %26 = load i32, ptr %err, align 4
  %cmp81 = icmp eq i32 %26, 0
  br i1 %cmp81, label %if.then82, label %if.end88

if.then82:                                        ; preds = %while.end80
  %arraydecay83 = getelementptr inbounds [1 x %struct.sp_int], ptr %t1, i64 0, i64 0
  %27 = load ptr, ptr %b.addr, align 8
  %call84 = call i32 @sp_cmp(ptr noundef %arraydecay83, ptr noundef %27)
  %cmp85 = icmp ne i32 %call84, 0
  br i1 %cmp85, label %if.then86, label %if.else

if.then86:                                        ; preds = %if.then82
  store i32 -214, ptr %err, align 4
  br label %if.end87

if.else:                                          ; preds = %if.then82
  store i32 0, ptr %err, align 4
  br label %if.end87

if.end87:                                         ; preds = %if.else, %if.then86
  br label %if.end88

if.end88:                                         ; preds = %if.end87, %while.end80
  %arraydecay89 = getelementptr inbounds [1 x %struct.sp_int], ptr %t1, i64 0, i64 0
  call void @sp_clear(ptr noundef %arraydecay89)
  %arraydecay90 = getelementptr inbounds [1 x %struct.sp_int], ptr %t2, i64 0, i64 0
  call void @sp_clear(ptr noundef %arraydecay90)
  br label %do.body91

do.body91:                                        ; preds = %if.end88
  br label %do.end92

do.end92:                                         ; preds = %do.body91
  %28 = load i32, ptr %err, align 4
  store i32 %28, ptr %retval, align 4
  br label %return

return:                                           ; preds = %do.end92, %if.then
  %29 = load i32, ptr %retval, align 4
  ret i32 %29
}