; Function Attrs: nounwind uwtable
define internal fastcc i32 @_ecc_is_point(ptr noundef %ecp, ptr noundef %b, ptr noundef %prime) unnamed_addr #2 {
entry:
  %t1 = alloca [1 x %struct.sp_int], align 16
  %t2 = alloca [1 x %struct.sp_int], align 16
  %call = call i32 @sp_init_multi(ptr noundef nonnull %t1, ptr noundef nonnull %t2, ptr noundef null, ptr noundef null, ptr noundef null, ptr noundef null) #19
  %cmp.not = icmp eq i32 %call, 0
  br i1 %cmp.not, label %if.then3, label %return

if.then3:                                         ; preds = %entry
  %y = getelementptr inbounds nuw i8, ptr %ecp, i64 1040
  %call6 = call i32 @sp_sqr(ptr noundef nonnull %y, ptr noundef nonnull %t1) #19
  %cmp8 = icmp eq i32 %call6, 0
  br i1 %cmp8, label %if.end13, label %if.end88

if.end13:                                         ; preds = %if.then3
  %call12 = call i32 @sp_sqr(ptr noundef nonnull %ecp, ptr noundef nonnull %t2) #19
  %cmp14 = icmp eq i32 %call12, 0
  br i1 %cmp14, label %if.end19, label %if.end88

if.end19:                                         ; preds = %if.end13
  %call18 = call i32 @sp_mod(ptr noundef nonnull %t2, ptr noundef %prime, ptr noundef nonnull %t2) #19
  %cmp20 = icmp eq i32 %call18, 0
  br i1 %cmp20, label %if.end27, label %if.end88

if.end27:                                         ; preds = %if.end19
  %call26 = call i32 @sp_mul(ptr noundef nonnull %ecp, ptr noundef nonnull %t2, ptr noundef nonnull %t2) #19
  %cmp28 = icmp eq i32 %call26, 0
  br i1 %cmp28, label %if.end34, label %if.end88

if.end34:                                         ; preds = %if.end27
  %call33 = call i32 @sp_submod(ptr noundef nonnull %t1, ptr noundef nonnull %t2, ptr noundef %prime, ptr noundef nonnull %t1) #19
  %cmp35 = icmp eq i32 %call33, 0
  br i1 %cmp35, label %if.end42, label %if.end88

if.end42:                                         ; preds = %if.end34
  %call41 = call i32 @sp_add(ptr noundef nonnull %t1, ptr noundef nonnull %ecp, ptr noundef nonnull %t1) #19
  %cmp43 = icmp eq i32 %call41, 0
  br i1 %cmp43, label %if.end50, label %if.end88

if.end50:                                         ; preds = %if.end42
  %call49 = call i32 @sp_add(ptr noundef nonnull %t1, ptr noundef nonnull %ecp, ptr noundef nonnull %t1) #19
  %cmp51 = icmp eq i32 %call49, 0
  br i1 %cmp51, label %if.end58, label %if.end88

if.end58:                                         ; preds = %if.end50
  %call57 = call i32 @sp_add(ptr noundef nonnull %t1, ptr noundef nonnull %ecp, ptr noundef nonnull %t1) #19
  %cmp59 = icmp eq i32 %call57, 0
  br i1 %cmp59, label %if.end64, label %if.end88

if.end64:                                         ; preds = %if.end58
  %call63 = call i32 @sp_mod(ptr noundef nonnull %t1, ptr noundef %prime, ptr noundef nonnull %t1) #19
  %cmp7016 = icmp eq i32 %call63, 0
  br i1 %cmp7016, label %land.rhs71, label %if.end88

land.rhs71:                                       ; preds = %if.end64, %while.body76
  %call73 = call i32 @sp_cmp(ptr noundef nonnull %t1, ptr noundef %prime) #19
  %cmp74.not = icmp eq i32 %call73, -1
  br i1 %cmp74.not, label %if.then82, label %while.body76

while.body76:                                     ; preds = %land.rhs71
  %call79 = call i32 @sp_sub(ptr noundef nonnull %t1, ptr noundef %prime, ptr noundef nonnull %t1) #19
  %cmp70 = icmp eq i32 %call79, 0
  br i1 %cmp70, label %land.rhs71, label %if.end88, !llvm.loop !25

if.then82:                                        ; preds = %land.rhs71
  %call84 = call i32 @sp_cmp(ptr noundef nonnull %t1, ptr noundef %b) #19
  %cmp85.not = icmp eq i32 %call84, 0
  %. = select i1 %cmp85.not, i32 0, i32 -214
  br label %if.end88

if.end88:                                         ; preds = %while.body76, %if.then3, %if.end13, %if.end19, %if.end27, %if.end34, %if.end42, %if.end50, %if.end58, %if.end64, %if.then82
  %err.10 = phi i32 [ %., %if.then82 ], [ %call63, %if.end64 ], [ %call6, %if.then3 ], [ %call12, %if.end13 ], [ %call18, %if.end19 ], [ %call26, %if.end27 ], [ %call33, %if.end34 ], [ %call41, %if.end42 ], [ %call49, %if.end50 ], [ %call57, %if.end58 ], [ %call79, %while.body76 ]
  call void @sp_clear(ptr noundef nonnull %t1) #19
  call void @sp_clear(ptr noundef nonnull %t2) #19
  br label %return

return:                                           ; preds = %entry, %if.end88
  %retval.0 = phi i32 [ %err.10, %if.end88 ], [ %call, %entry ]
  ret i32 %retval.0
}